target datalayout = "e-m:e-p270:32:32-p271:32:32-p272:64:64-i64:64-i128:128-f80:128-n8:16:32:64-S128"
target triple = "x86_64-pc-linux-gnu"

%struct.table_t = type { i64, i64, i64, ptr }
%struct.obj_t = type { %struct.H5O_token_t, ptr, i8, i8 }
%struct.H5O_token_t = type { [16 x i8] }

; Function Attrs: nounwind willreturn memory(read) uwtable
define ptr @search_obj(ptr noundef %0, ptr noundef %1) #10 {
  %3 = alloca ptr, align 8
  %4 = alloca ptr, align 8
  %5 = alloca ptr, align 8
  %6 = alloca i32, align 4
  %7 = alloca i32, align 4
  store ptr %0, ptr %4, align 8
  store ptr %1, ptr %5, align 8
  store i32 0, ptr %6, align 4
  br label %8

8:                                                ; preds = %41, %2
  %9 = load i32, ptr %6, align 4
  %10 = zext i32 %9 to i64
  %11 = load ptr, ptr %4, align 8
  %12 = getelementptr inbounds %struct.table_t, ptr %11, i32 0, i32 2
  %13 = load i64, ptr %12, align 8
  %14 = icmp ult i64 %10, %13
  br i1 %14, label %15, label %44

15:                                               ; preds = %8
  %16 = load ptr, ptr %4, align 8
  %17 = getelementptr inbounds %struct.table_t, ptr %16, i32 0, i32 0
  %18 = load i64, ptr %17, align 8
  %19 = load ptr, ptr %4, align 8
  %20 = getelementptr inbounds %struct.table_t, ptr %19, i32 0, i32 3
  %21 = load ptr, ptr %20, align 8
  %22 = load i32, ptr %6, align 4
  %23 = zext i32 %22 to i64
  %24 = getelementptr inbounds %struct.obj_t, ptr %21, i64 %23
  %25 = getelementptr inbounds %struct.obj_t, ptr %24, i32 0, i32 0
  %26 = load ptr, ptr %5, align 8
  %27 = call i32 @H5Otoken_cmp(i64 noundef %18, ptr noundef %25, ptr noundef %26, ptr noundef %7)
  %28 = icmp slt i32 %27, 0
  br i1 %28, label %29, label %30

29:                                               ; preds = %15
  store ptr null, ptr %3, align 8
  br label %45

30:                                               ; preds = %15
  %31 = load i32, ptr %7, align 4
  %32 = icmp ne i32 %31, 0
  br i1 %32, label %40, label %33

33:                                               ; preds = %30
  %34 = load ptr, ptr %4, align 8
  %35 = getelementptr inbounds %struct.table_t, ptr %34, i32 0, i32 3
  %36 = load ptr, ptr %35, align 8
  %37 = load i32, ptr %6, align 4
  %38 = zext i32 %37 to i64
  %39 = getelementptr inbounds %struct.obj_t, ptr %36, i64 %38
  store ptr %39, ptr %3, align 8
  br label %45

40:                                               ; preds = %30
  br label %41

41:                                               ; preds = %40
  %42 = load i32, ptr %6, align 4
  %43 = add i32 %42, 1
  store i32 %43, ptr %6, align 4
  br label %8

44:                                               ; preds = %8
  store ptr null, ptr %3, align 8
  br label %45

45:                                               ; preds = %44, %33, %29
  %46 = load ptr, ptr %3, align 8
  ret ptr %46
}