; Function Attrs: mustprogress nofree nounwind willreturn memory(read) uwtable
define ptr @search_obj(ptr noundef readonly captures(none) %0, ptr noundef %1) local_unnamed_addr #14 {
  %3 = alloca i32, align 4
  %4 = getelementptr inbounds nuw i8, ptr %0, i64 16
  %5 = load i64, ptr %4, align 8
  %.not15 = icmp eq i64 %5, 0
  br i1 %.not15, label %.loopexit, label %.lr.ph

.lr.ph:                                           ; preds = %2
  %6 = getelementptr inbounds nuw i8, ptr %0, i64 24
  br label %12

7:                                                ; preds = %19
  %8 = add i32 %.013, 1
  %9 = zext i32 %8 to i64
  %10 = load i64, ptr %4, align 8
  %11 = icmp ugt i64 %10, %9
  br i1 %11, label %12, label %.loopexit

12:                                               ; preds = %.lr.ph, %7
  %13 = phi i64 [ 0, %.lr.ph ], [ %9, %7 ]
  %.013 = phi i32 [ 0, %.lr.ph ], [ %8, %7 ]
  %14 = load i64, ptr %0, align 8
  %15 = load ptr, ptr %6, align 8
  %16 = getelementptr inbounds nuw %struct.obj_t, ptr %15, i64 %13
  %17 = call i32 @H5Otoken_cmp(i64 noundef %14, ptr noundef %16, ptr noundef %1, ptr noundef nonnull %3) #23
  %18 = icmp slt i32 %17, 0
  br i1 %18, label %.loopexit, label %19

19:                                               ; preds = %12
  %20 = load i32, ptr %3, align 4
  %.not = icmp eq i32 %20, 0
  br i1 %.not, label %21, label %7

21:                                               ; preds = %19
  %22 = load ptr, ptr %6, align 8
  %23 = getelementptr inbounds nuw %struct.obj_t, ptr %22, i64 %13
  br label %.loopexit

.loopexit:                                        ; preds = %12, %7, %2, %21
  %.09 = phi ptr [ %23, %21 ], [ null, %2 ], [ null, %7 ], [ null, %12 ]
  ret ptr %.09
}